; Function Attrs: nounwind uwtable
define noalias noundef ptr @Gia_AigerReadPacking(ptr noundef captures(none) %0, i32 noundef %1) local_unnamed_addr #8 {
  %3 = sdiv i32 %1, 4
  %4 = tail call noalias dereferenceable_or_null(16) ptr @malloc(i64 noundef 16) #16
  %5 = add nsw i32 %3, -1
  %or.cond.i = icmp ult i32 %5, 15
  %spec.store.select.i = select i1 %or.cond.i, i32 16, i32 %3
  %6 = getelementptr inbounds nuw i8, ptr %4, i64 4
  store i32 0, ptr %6, align 4, !tbaa !56
  store i32 %spec.store.select.i, ptr %4, align 8, !tbaa !59
  %.not.i = icmp eq i32 %spec.store.select.i, 0
  br i1 %.not.i, label %Vec_IntAlloc.exit, label %7

7:                                                ; preds = %2
  %8 = sext i32 %spec.store.select.i to i64
  %9 = shl nsw i64 %8, 2
  %10 = tail call noalias ptr @malloc(i64 noundef %9) #16
  br label %Vec_IntAlloc.exit

Vec_IntAlloc.exit:                                ; preds = %2, %7
  %11 = phi ptr [ %10, %7 ], [ null, %2 ]
  %12 = getelementptr inbounds nuw i8, ptr %4, i64 8
  store ptr %11, ptr %12, align 8, !tbaa !52
  %13 = icmp sgt i32 %1, 3
  br i1 %13, label %.lr.ph.preheader, label %._crit_edge

.lr.ph.preheader:                                 ; preds = %Vec_IntAlloc.exit
  %.pre = load ptr, ptr %0, align 8, !tbaa !3
  br label %.lr.ph

.lr.ph:                                           ; preds = %.lr.ph.preheader, %Vec_IntPush.exit
  %14 = phi ptr [ %.pre.i8, %Vec_IntPush.exit ], [ %11, %.lr.ph.preheader ]
  %15 = phi ptr [ %46, %Vec_IntPush.exit ], [ %.pre, %.lr.ph.preheader ]
  %.07 = phi i32 [ %44, %Vec_IntPush.exit ], [ 0, %.lr.ph.preheader ]
  br label %16

16:                                               ; preds = %16, %.lr.ph
  %.08.i = phi i32 [ 0, %.lr.ph ], [ %21, %16 ]
  %.047.i = phi i32 [ 0, %.lr.ph ], [ %22, %16 ]
  %.056.i = phi ptr [ %15, %.lr.ph ], [ %18, %16 ]
  %17 = shl i32 %.08.i, 8
  %18 = getelementptr inbounds nuw i8, ptr %.056.i, i64 1
  %19 = load i8, ptr %.056.i, align 1, !tbaa !8
  %20 = zext i8 %19 to i32
  %21 = or disjoint i32 %17, %20
  %22 = add nuw nsw i32 %.047.i, 1
  %exitcond.not.i = icmp eq i32 %22, 4
  br i1 %exitcond.not.i, label %Gia_AigerReadInt.exit, label %16, !llvm.loop !9

Gia_AigerReadInt.exit:                            ; preds = %16
  %23 = load i32, ptr %6, align 4, !tbaa !56
  %24 = load i32, ptr %4, align 8, !tbaa !59
  %25 = icmp eq i32 %23, %24
  br i1 %25, label %26, label %Vec_IntPush.exit

26:                                               ; preds = %Gia_AigerReadInt.exit
  %27 = icmp slt i32 %23, 16
  br i1 %27, label %28, label %33

28:                                               ; preds = %26
  %.not9.i.i = icmp eq ptr %14, null
  br i1 %.not9.i.i, label %31, label %29

29:                                               ; preds = %28
  %30 = tail call dereferenceable_or_null(64) ptr @realloc(ptr noundef nonnull %14, i64 noundef 64) #19
  br label %Vec_IntPush.exit.sink.split

31:                                               ; preds = %28
  %32 = tail call noalias dereferenceable_or_null(64) ptr @malloc(i64 noundef 64) #16
  br label %Vec_IntPush.exit.sink.split

33:                                               ; preds = %26
  %34 = shl nuw nsw i32 %23, 1
  %.not9.i9.i = icmp eq ptr %14, null
  %35 = zext nneg i32 %34 to i64
  %36 = shl nuw nsw i64 %35, 2
  br i1 %.not9.i9.i, label %39, label %37

37:                                               ; preds = %33
  %38 = tail call ptr @realloc(ptr noundef nonnull %14, i64 noundef %36) #19
  br label %Vec_IntPush.exit.sink.split

39:                                               ; preds = %33
  %40 = tail call noalias ptr @malloc(i64 noundef %36) #16
  br label %Vec_IntPush.exit.sink.split

Vec_IntPush.exit.sink.split:                      ; preds = %37, %39, %29, %31
  %.sink10 = phi ptr [ %30, %29 ], [ %32, %31 ], [ %38, %37 ], [ %40, %39 ]
  %.sink = phi i32 [ 16, %29 ], [ 16, %31 ], [ %34, %37 ], [ %34, %39 ]
  store ptr %.sink10, ptr %12, align 8, !tbaa !52
  store i32 %.sink, ptr %4, align 8, !tbaa !59
  br label %Vec_IntPush.exit

Vec_IntPush.exit:                                 ; preds = %Vec_IntPush.exit.sink.split, %Gia_AigerReadInt.exit
  %.pre.i8 = phi ptr [ %14, %Gia_AigerReadInt.exit ], [ %.sink10, %Vec_IntPush.exit.sink.split ]
  %41 = add nsw i32 %23, 1
  store i32 %41, ptr %6, align 4, !tbaa !56
  %42 = sext i32 %23 to i64
  %43 = getelementptr inbounds i32, ptr %.pre.i8, i64 %42
  store i32 %21, ptr %43, align 4, !tbaa !37
  %44 = add nuw nsw i32 %.07, 1
  %45 = load ptr, ptr %0, align 8, !tbaa !3
  %46 = getelementptr inbounds nuw i8, ptr %45, i64 4
  store ptr %46, ptr %0, align 8, !tbaa !3
  %exitcond.not = icmp eq i32 %44, %3
  br i1 %exitcond.not, label %._crit_edge, label %.lr.ph, !llvm.loop !74

._crit_edge:                                      ; preds = %Vec_IntPush.exit, %Vec_IntAlloc.exit
  ret ptr %4
}